; Function Attrs: cold nounwind optsize uwtable
define void @ff_slice_thread_free(ptr noundef readonly captures(none) %0) local_unnamed_addr #0 {
  %2 = getelementptr inbounds nuw i8, ptr %0, i64 40
  %3 = load ptr, ptr %2, align 8, !tbaa !4
  %4 = getelementptr inbounds nuw i8, ptr %3, i64 32
  %5 = load ptr, ptr %4, align 8, !tbaa !27
  tail call void @avpriv_slicethread_free(ptr noundef %5) #4
  %6 = load ptr, ptr %2, align 8, !tbaa !4
  %7 = getelementptr inbounds nuw i8, ptr %6, i64 32
  tail call void @av_freep(ptr noundef nonnull %7) #4
  ret void
}